target datalayout = "e-m:e-p270:32:32-p271:32:32-p272:64:64-i64:64-i128:128-f80:128-n8:16:32:64-S128"
target triple = "x86_64-pc-linux-gnu"

%struct.hwloc_topology = type { i32, i32, i32, ptr, ptr, i64, [20 x i32], [20 x i32], i64, i64, i32, ptr, i64, ptr, i64, [6 x %struct.hwloc_special_level_s], ptr, ptr, %struct.hwloc_binding_hooks, %struct.hwloc_topology_support, %struct.hwloc_infos_s, ptr, ptr, i32, ptr, ptr, i32, i32, ptr, i32, i32, ptr, i32, i32, i32, [5 x float], i32, ptr, ptr, i32, i32, ptr, i32, %struct.hwloc_numanode_attr_s, i32, i32, ptr, i64, i32, ptr, ptr, ptr }
%struct.hwloc_special_level_s = type { i32, ptr, ptr, ptr }
%struct.hwloc_binding_hooks = type { ptr, ptr, ptr, ptr, ptr, ptr, ptr, ptr, ptr, ptr, ptr, ptr, ptr, ptr, ptr, ptr, ptr, ptr, ptr, ptr, ptr, ptr, ptr, ptr }
%struct.hwloc_topology_support = type { ptr, ptr, ptr, ptr }
%struct.hwloc_infos_s = type { ptr, i32, i32 }
%struct.hwloc_numanode_attr_s = type { i64, i32, ptr }
%struct.hwloc_obj = type { i32, ptr, i32, ptr, i64, ptr, i32, i32, ptr, ptr, ptr, i32, ptr, ptr, i32, ptr, ptr, ptr, i32, i32, ptr, i32, ptr, i32, ptr, ptr, ptr, ptr, ptr, %struct.hwloc_infos_s, ptr, i64 }
%struct.hwloc_tma = type { ptr, ptr, i32 }

@.str.1 = private unnamed_addr constant [3 x i8] c"%s\00", align 1
@.str.2 = private unnamed_addr constant [21 x i8] c"\0A\0A * CPU cpusets *\0A\0A\00", align 1
@.str.3 = private unnamed_addr constant [13 x i8] c"core:pulevel\00", align 1

; Function Attrs: inlinehint nounwind uwtable
define internal ptr @hwloc_tma_malloc(ptr noundef %0, i64 noundef %1) #4 {
  %3 = alloca ptr, align 8
  %4 = alloca ptr, align 8
  %5 = alloca i64, align 8
  store ptr %0, ptr %4, align 8, !tbaa !70
  store i64 %1, ptr %5, align 8, !tbaa !36
  %6 = load ptr, ptr %4, align 8, !tbaa !70
  %7 = icmp ne ptr %6, null
  br i1 %7, label %8, label %15

8:                                                ; preds = %2
  %9 = load ptr, ptr %4, align 8, !tbaa !70
  %10 = getelementptr inbounds nuw %struct.hwloc_tma, ptr %9, i32 0, i32 0
  %11 = load ptr, ptr %10, align 8, !tbaa !154
  %12 = load ptr, ptr %4, align 8, !tbaa !70
  %13 = load i64, ptr %5, align 8, !tbaa !36
  %14 = call ptr %11(ptr noundef %12, i64 noundef %13)
  store ptr %14, ptr %3, align 8
  br label %18

15:                                               ; preds = %2
  %16 = load i64, ptr %5, align 8, !tbaa !36
  %17 = call noalias ptr @malloc(i64 noundef %16) #18
  store ptr %17, ptr %3, align 8
  br label %18

18:                                               ; preds = %15, %8
  %19 = load ptr, ptr %3, align 8
  ret ptr %19
}

; Function Attrs: nounwind uwtable
define ptr @hwloc_alloc_setup_object(ptr noundef %0, i32 noundef %1, i32 noundef %2) #0 {
  %4 = alloca ptr, align 8
  %5 = alloca ptr, align 8
  %6 = alloca i32, align 4
  %7 = alloca i32, align 4
  %8 = alloca ptr, align 8
  %9 = alloca i32, align 4
  store ptr %0, ptr %5, align 8, !tbaa !3
  store i32 %1, ptr %6, align 4, !tbaa !33
  store i32 %2, ptr %7, align 4, !tbaa !33
  call void @llvm.lifetime.start.p0(i64 8, ptr %8) #14
  %10 = load ptr, ptr %5, align 8, !tbaa !3
  %11 = getelementptr inbounds nuw %struct.hwloc_topology, ptr %10, i32 0, i32 41
  %12 = load ptr, ptr %11, align 8, !tbaa !45
  %13 = call ptr @hwloc_tma_malloc(ptr noundef %12, i64 noundef 248)
  store ptr %13, ptr %8, align 8, !tbaa !37
  %14 = load ptr, ptr %8, align 8, !tbaa !37
  %15 = icmp ne ptr %14, null
  br i1 %15, label %17, label %16

16:                                               ; preds = %3
  store ptr null, ptr %4, align 8
  store i32 1, ptr %9, align 4
  br label %48

17:                                               ; preds = %3
  %18 = load ptr, ptr %8, align 8, !tbaa !37
  call void @llvm.memset.p0.i64(ptr align 8 %18, i8 0, i64 248, i1 false)
  %19 = load i32, ptr %6, align 4, !tbaa !33
  %20 = load ptr, ptr %8, align 8, !tbaa !37
  %21 = getelementptr inbounds nuw %struct.hwloc_obj, ptr %20, i32 0, i32 0
  store i32 %19, ptr %21, align 8, !tbaa !46
  %22 = load i32, ptr %7, align 4, !tbaa !33
  %23 = load ptr, ptr %8, align 8, !tbaa !37
  %24 = getelementptr inbounds nuw %struct.hwloc_obj, ptr %23, i32 0, i32 2
  store i32 %22, ptr %24, align 8, !tbaa !47
  %25 = load ptr, ptr %5, align 8, !tbaa !3
  %26 = getelementptr inbounds nuw %struct.hwloc_topology, ptr %25, i32 0, i32 12
  %27 = load i64, ptr %26, align 8, !tbaa !48
  %28 = add i64 %27, 1
  store i64 %28, ptr %26, align 8, !tbaa !48
  %29 = load ptr, ptr %8, align 8, !tbaa !37
  %30 = getelementptr inbounds nuw %struct.hwloc_obj, ptr %29, i32 0, i32 31
  store i64 %27, ptr %30, align 8, !tbaa !49
  %31 = load ptr, ptr %5, align 8, !tbaa !3
  %32 = getelementptr inbounds nuw %struct.hwloc_topology, ptr %31, i32 0, i32 41
  %33 = load ptr, ptr %32, align 8, !tbaa !45
  %34 = call ptr @hwloc_tma_malloc(ptr noundef %33, i64 noundef 48)
  %35 = load ptr, ptr %8, align 8, !tbaa !37
  %36 = getelementptr inbounds nuw %struct.hwloc_obj, ptr %35, i32 0, i32 5
  store ptr %34, ptr %36, align 8, !tbaa !50
  %37 = load ptr, ptr %8, align 8, !tbaa !37
  %38 = getelementptr inbounds nuw %struct.hwloc_obj, ptr %37, i32 0, i32 5
  %39 = load ptr, ptr %38, align 8, !tbaa !50
  %40 = icmp ne ptr %39, null
  br i1 %40, label %43, label %41

41:                                               ; preds = %17
  %42 = load ptr, ptr %8, align 8, !tbaa !37
  call void @free(ptr noundef %42) #14
  store ptr null, ptr %4, align 8
  store i32 1, ptr %9, align 4
  br label %48

43:                                               ; preds = %17
  %44 = load ptr, ptr %8, align 8, !tbaa !37
  %45 = getelementptr inbounds nuw %struct.hwloc_obj, ptr %44, i32 0, i32 5
  %46 = load ptr, ptr %45, align 8, !tbaa !50
  call void @llvm.memset.p0.i64(ptr align 8 %46, i8 0, i64 48, i1 false)
  %47 = load ptr, ptr %8, align 8, !tbaa !37
  store ptr %47, ptr %4, align 8
  store i32 1, ptr %9, align 4
  br label %48

48:                                               ; preds = %43, %41, %16
  call void @llvm.lifetime.end.p0(i64 8, ptr %8) #14
  %49 = load ptr, ptr %4, align 8
  ret ptr %49
}

; Function Attrs: inlinehint nounwind uwtable
define internal void @hwloc_debug(ptr noundef %0, ...) #4 {
  %2 = alloca ptr, align 8
  store ptr %0, ptr %2, align 8, !tbaa !34
  ret void
}

; Function Attrs: nounwind uwtable
define hidden void @hwloc_setup_pu_level(ptr noundef %0, i32 noundef %1) #0 {
  %3 = alloca ptr, align 8
  %4 = alloca i32, align 4
  %5 = alloca ptr, align 8
  %6 = alloca i32, align 4
  %7 = alloca i32, align 4
  store ptr %0, ptr %3, align 8, !tbaa !3
  store i32 %1, ptr %4, align 4, !tbaa !33
  call void @llvm.lifetime.start.p0(i64 8, ptr %5) #14
  call void @llvm.lifetime.start.p0(i64 4, ptr %6) #14
  call void @llvm.lifetime.start.p0(i64 4, ptr %7) #14
  call void (ptr, ...) @hwloc_debug(ptr noundef @.str.1, ptr noundef @.str.2)
  store i32 0, ptr %7, align 4, !tbaa !33
  store i32 0, ptr %6, align 4, !tbaa !33
  br label %8

8:                                                ; preds = %32, %2
  %9 = load i32, ptr %7, align 4, !tbaa !33
  %10 = load i32, ptr %4, align 4, !tbaa !33
  %11 = icmp ult i32 %9, %10
  br i1 %11, label %12, label %35

12:                                               ; preds = %8
  %13 = load ptr, ptr %3, align 8, !tbaa !3
  %14 = load i32, ptr %6, align 4, !tbaa !33
  %15 = call ptr @hwloc_alloc_setup_object(ptr noundef %13, i32 noundef 4, i32 noundef %14)
  store ptr %15, ptr %5, align 8, !tbaa !37
  %16 = call noalias ptr @hwloc_bitmap_alloc()
  %17 = load ptr, ptr %5, align 8, !tbaa !37
  %18 = getelementptr inbounds nuw %struct.hwloc_obj, ptr %17, i32 0, i32 25
  store ptr %16, ptr %18, align 8, !tbaa !39
  %19 = load ptr, ptr %5, align 8, !tbaa !37
  %20 = getelementptr inbounds nuw %struct.hwloc_obj, ptr %19, i32 0, i32 25
  %21 = load ptr, ptr %20, align 8, !tbaa !39
  %22 = load i32, ptr %6, align 4, !tbaa !33
  %23 = call i32 @hwloc_bitmap_only(ptr noundef %21, i32 noundef %22)
  br label %24

24:                                               ; preds = %12
  br label %25

25:                                               ; preds = %24
  br label %26

26:                                               ; preds = %25
  %27 = load ptr, ptr %3, align 8, !tbaa !3
  %28 = load ptr, ptr %5, align 8, !tbaa !37
  %29 = call ptr @hwloc__insert_object_by_cpuset(ptr noundef %27, ptr noundef null, ptr noundef %28, ptr noundef @.str.3)
  %30 = load i32, ptr %7, align 4, !tbaa !33
  %31 = add i32 %30, 1
  store i32 %31, ptr %7, align 4, !tbaa !33
  br label %32

32:                                               ; preds = %26
  %33 = load i32, ptr %6, align 4, !tbaa !33
  %34 = add i32 %33, 1
  store i32 %34, ptr %6, align 4, !tbaa !33
  br label %8, !llvm.loop !43

35:                                               ; preds = %8
  call void @llvm.lifetime.end.p0(i64 4, ptr %7) #14
  call void @llvm.lifetime.end.p0(i64 4, ptr %6) #14
  call void @llvm.lifetime.end.p0(i64 8, ptr %5) #14
  ret void
}