; Function Attrs: nounwind uwtable
define hidden void @hwloc_setup_pu_level(ptr noundef %0, i32 noundef %1) local_unnamed_addr #5 {
  %.not = icmp eq i32 %1, 0
  br i1 %.not, label %._crit_edge, label %.lr.ph

.lr.ph:                                           ; preds = %2
  %3 = getelementptr inbounds nuw i8, ptr %0, i64 840
  %4 = getelementptr inbounds nuw i8, ptr %0, i64 232
  br label %5

5:                                                ; preds = %.lr.ph, %hwloc_alloc_setup_object.exit
  %.012 = phi i32 [ 0, %.lr.ph ], [ %30, %hwloc_alloc_setup_object.exit ]
  %6 = load ptr, ptr %3, align 8, !tbaa !32
  %.not.i.i = icmp eq ptr %6, null
  br i1 %.not.i.i, label %10, label %7

7:                                                ; preds = %5
  %8 = load ptr, ptr %6, align 8, !tbaa !33
  %9 = tail call ptr %8(ptr noundef nonnull %6, i64 noundef 248) #34
  br label %hwloc_tma_malloc.exit.i

10:                                               ; preds = %5
  %11 = tail call noalias dereferenceable_or_null(248) ptr @malloc(i64 noundef 248) #35
  br label %hwloc_tma_malloc.exit.i

hwloc_tma_malloc.exit.i:                          ; preds = %10, %7
  %.0.i.i = phi ptr [ %9, %7 ], [ %11, %10 ]
  %.not.i = icmp eq ptr %.0.i.i, null
  br i1 %.not.i, label %hwloc_alloc_setup_object.exit, label %12

12:                                               ; preds = %hwloc_tma_malloc.exit.i
  tail call void @llvm.memset.p0.i64(ptr noundef nonnull align 8 dereferenceable(248) %.0.i.i, i8 0, i64 248, i1 false)
  store i32 4, ptr %.0.i.i, align 8, !tbaa !35
  %13 = getelementptr inbounds nuw i8, ptr %.0.i.i, i64 16
  store i32 %.012, ptr %13, align 8, !tbaa !41
  %14 = load i64, ptr %4, align 8, !tbaa !42
  %15 = add i64 %14, 1
  store i64 %15, ptr %4, align 8, !tbaa !42
  %16 = getelementptr inbounds nuw i8, ptr %.0.i.i, i64 240
  store i64 %14, ptr %16, align 8, !tbaa !43
  %17 = load ptr, ptr %3, align 8, !tbaa !32
  %.not.i18.i = icmp eq ptr %17, null
  br i1 %.not.i18.i, label %21, label %18

18:                                               ; preds = %12
  %19 = load ptr, ptr %17, align 8, !tbaa !33
  %20 = tail call ptr %19(ptr noundef nonnull %17, i64 noundef 48) #34
  br label %hwloc_tma_malloc.exit20.i

21:                                               ; preds = %12
  %22 = tail call noalias dereferenceable_or_null(48) ptr @malloc(i64 noundef 48) #35
  br label %hwloc_tma_malloc.exit20.i

hwloc_tma_malloc.exit20.i:                        ; preds = %21, %18
  %.0.i19.i = phi ptr [ %20, %18 ], [ %22, %21 ]
  %23 = getelementptr inbounds nuw i8, ptr %.0.i.i, i64 40
  store ptr %.0.i19.i, ptr %23, align 8, !tbaa !44
  %.not17.i = icmp eq ptr %.0.i19.i, null
  br i1 %.not17.i, label %24, label %25

24:                                               ; preds = %hwloc_tma_malloc.exit20.i
  tail call void @free(ptr noundef nonnull %.0.i.i) #34
  br label %hwloc_alloc_setup_object.exit

25:                                               ; preds = %hwloc_tma_malloc.exit20.i
  tail call void @llvm.memset.p0.i64(ptr noundef nonnull align 8 dereferenceable(48) %.0.i19.i, i8 0, i64 48, i1 false)
  br label %hwloc_alloc_setup_object.exit

hwloc_alloc_setup_object.exit:                    ; preds = %hwloc_tma_malloc.exit.i, %24, %25
  %.0.i = phi ptr [ %.0.i.i, %25 ], [ null, %24 ], [ null, %hwloc_tma_malloc.exit.i ]
  %26 = tail call noalias ptr @hwloc_bitmap_alloc() #34
  %27 = getelementptr inbounds nuw i8, ptr %.0.i, i64 184
  store ptr %26, ptr %27, align 8, !tbaa !45
  %28 = tail call i32 @hwloc_bitmap_only(ptr noundef %26, i32 noundef %.012) #34
  %29 = tail call ptr @hwloc__insert_object_by_cpuset(ptr noundef nonnull %0, ptr noundef null, ptr noundef %.0.i, ptr noundef nonnull @.str.3)
  %30 = add nuw i32 %.012, 1
  %exitcond.not = icmp eq i32 %30, %1
  br i1 %exitcond.not, label %._crit_edge, label %5, !llvm.loop !46

._crit_edge:                                      ; preds = %hwloc_alloc_setup_object.exit, %2
  ret void
}